target datalayout = "e-m:e-p270:32:32-p271:32:32-p272:64:64-i64:64-i128:128-f80:128-n8:16:32:64-S128"
target triple = "x86_64-pc-linux-gnu"

%struct._lv_draw_sw_mask_common_dsc_t = type { ptr, i32 }
%struct._lv_draw_sw_mask_line_param_t = type { %struct._lv_draw_sw_mask_common_dsc_t, %struct.anon.0, %struct.lv_point_t, i32, i32, i32, i32, i8 }
%struct.anon.0 = type { %struct.lv_point_t, %struct.lv_point_t, i8 }
%struct.lv_point_t = type { i32, i32 }

; Function Attrs: inlinehint nounwind uwtable
define internal void @lv_memzero(ptr noundef %0, i64 noundef %1) #3 {
  %3 = alloca ptr, align 8
  %4 = alloca i64, align 8
  store ptr %0, ptr %3, align 8, !tbaa !3
  store i64 %1, ptr %4, align 8, !tbaa !29
  %5 = load ptr, ptr %3, align 8, !tbaa !3
  %6 = load i64, ptr %4, align 8, !tbaa !29
  call void @lv_memset(ptr noundef %5, i8 noundef zeroext 0, i64 noundef %6)
  ret void
}

; Function Attrs: nounwind uwtable
define void @lv_draw_sw_mask_line_points_init(ptr noundef %0, i32 noundef %1, i32 noundef %2, i32 noundef %3, i32 noundef %4, i32 noundef %5) #0 {
  %7 = alloca ptr, align 8
  %8 = alloca i32, align 4
  %9 = alloca i32, align 4
  %10 = alloca i32, align 4
  %11 = alloca i32, align 4
  %12 = alloca i32, align 4
  %13 = alloca i32, align 4
  %14 = alloca i32, align 4
  %15 = alloca i32, align 4
  %16 = alloca i32, align 4
  %17 = alloca i32, align 4
  store ptr %0, ptr %7, align 8, !tbaa !3
  store i32 %1, ptr %8, align 4, !tbaa !7
  store i32 %2, ptr %9, align 4, !tbaa !7
  store i32 %3, ptr %10, align 4, !tbaa !7
  store i32 %4, ptr %11, align 4, !tbaa !7
  store i32 %5, ptr %12, align 4, !tbaa !7
  %18 = load ptr, ptr %7, align 8, !tbaa !3
  call void @lv_memzero(ptr noundef %18, i64 noundef 64)
  %19 = load i32, ptr %9, align 4, !tbaa !7
  %20 = load i32, ptr %11, align 4, !tbaa !7
  %21 = icmp eq i32 %19, %20
  br i1 %21, label %22, label %30

22:                                               ; preds = %6
  %23 = load i32, ptr %12, align 4, !tbaa !7
  %24 = icmp eq i32 %23, 3
  br i1 %24, label %25, label %30

25:                                               ; preds = %22
  %26 = load i32, ptr %9, align 4, !tbaa !7
  %27 = add nsw i32 %26, -1
  store i32 %27, ptr %9, align 4, !tbaa !7
  %28 = load i32, ptr %11, align 4, !tbaa !7
  %29 = add nsw i32 %28, -1
  store i32 %29, ptr %11, align 4, !tbaa !7
  br label %30

30:                                               ; preds = %25, %22, %6
  %31 = load i32, ptr %9, align 4, !tbaa !7
  %32 = load i32, ptr %11, align 4, !tbaa !7
  %33 = icmp sgt i32 %31, %32
  br i1 %33, label %34, label %41

34:                                               ; preds = %30
  call void @llvm.lifetime.start.p0(i64 4, ptr %13) #4
  %35 = load i32, ptr %10, align 4, !tbaa !7
  store i32 %35, ptr %13, align 4, !tbaa !7
  %36 = load i32, ptr %8, align 4, !tbaa !7
  store i32 %36, ptr %10, align 4, !tbaa !7
  %37 = load i32, ptr %13, align 4, !tbaa !7
  store i32 %37, ptr %8, align 4, !tbaa !7
  %38 = load i32, ptr %11, align 4, !tbaa !7
  store i32 %38, ptr %13, align 4, !tbaa !7
  %39 = load i32, ptr %9, align 4, !tbaa !7
  store i32 %39, ptr %11, align 4, !tbaa !7
  %40 = load i32, ptr %13, align 4, !tbaa !7
  store i32 %40, ptr %9, align 4, !tbaa !7
  call void @llvm.lifetime.end.p0(i64 4, ptr %13) #4
  br label %41

41:                                               ; preds = %34, %30
  %42 = load ptr, ptr %7, align 8, !tbaa !3
  %43 = getelementptr inbounds nuw %struct._lv_draw_sw_mask_line_param_t, ptr %42, i32 0, i32 1
  %44 = getelementptr inbounds nuw %struct.anon.0, ptr %43, i32 0, i32 0
  %45 = load i32, ptr %8, align 4, !tbaa !7
  %46 = load i32, ptr %9, align 4, !tbaa !7
  call void @lv_point_set(ptr noundef %44, i32 noundef %45, i32 noundef %46)
  %47 = load ptr, ptr %7, align 8, !tbaa !3
  %48 = getelementptr inbounds nuw %struct._lv_draw_sw_mask_line_param_t, ptr %47, i32 0, i32 1
  %49 = getelementptr inbounds nuw %struct.anon.0, ptr %48, i32 0, i32 1
  %50 = load i32, ptr %10, align 4, !tbaa !7
  %51 = load i32, ptr %11, align 4, !tbaa !7
  call void @lv_point_set(ptr noundef %49, i32 noundef %50, i32 noundef %51)
  %52 = load i32, ptr %12, align 4, !tbaa !7
  %53 = load ptr, ptr %7, align 8, !tbaa !3
  %54 = getelementptr inbounds nuw %struct._lv_draw_sw_mask_line_param_t, ptr %53, i32 0, i32 1
  %55 = getelementptr inbounds nuw %struct.anon.0, ptr %54, i32 0, i32 2
  %56 = trunc i32 %52 to i8
  %57 = load i8, ptr %55, align 8
  %58 = and i8 %56, 3
  %59 = and i8 %57, -4
  %60 = or i8 %59, %58
  store i8 %60, ptr %55, align 8
  %61 = load ptr, ptr %7, align 8, !tbaa !3
  %62 = getelementptr inbounds nuw %struct._lv_draw_sw_mask_line_param_t, ptr %61, i32 0, i32 2
  %63 = load i32, ptr %8, align 4, !tbaa !7
  %64 = load i32, ptr %9, align 4, !tbaa !7
  call void @lv_point_set(ptr noundef %62, i32 noundef %63, i32 noundef %64)
  %65 = load i32, ptr %10, align 4, !tbaa !7
  %66 = load i32, ptr %8, align 4, !tbaa !7
  %67 = sub nsw i32 %65, %66
  %68 = icmp sgt i32 %67, 0
  br i1 %68, label %69, label %73

69:                                               ; preds = %41
  %70 = load i32, ptr %10, align 4, !tbaa !7
  %71 = load i32, ptr %8, align 4, !tbaa !7
  %72 = sub nsw i32 %70, %71
  br label %78

73:                                               ; preds = %41
  %74 = load i32, ptr %10, align 4, !tbaa !7
  %75 = load i32, ptr %8, align 4, !tbaa !7
  %76 = sub nsw i32 %74, %75
  %77 = sub nsw i32 0, %76
  br label %78

78:                                               ; preds = %73, %69
  %79 = phi i32 [ %72, %69 ], [ %77, %73 ]
  %80 = load i32, ptr %11, align 4, !tbaa !7
  %81 = load i32, ptr %9, align 4, !tbaa !7
  %82 = sub nsw i32 %80, %81
  %83 = icmp sgt i32 %82, 0
  br i1 %83, label %84, label %88

84:                                               ; preds = %78
  %85 = load i32, ptr %11, align 4, !tbaa !7
  %86 = load i32, ptr %9, align 4, !tbaa !7
  %87 = sub nsw i32 %85, %86
  br label %93

88:                                               ; preds = %78
  %89 = load i32, ptr %11, align 4, !tbaa !7
  %90 = load i32, ptr %9, align 4, !tbaa !7
  %91 = sub nsw i32 %89, %90
  %92 = sub nsw i32 0, %91
  br label %93

93:                                               ; preds = %88, %84
  %94 = phi i32 [ %87, %84 ], [ %92, %88 ]
  %95 = icmp sgt i32 %79, %94
  %96 = select i1 %95, i32 1, i32 0
  %97 = trunc i32 %96 to i8
  %98 = load ptr, ptr %7, align 8, !tbaa !3
  %99 = getelementptr inbounds nuw %struct._lv_draw_sw_mask_line_param_t, ptr %98, i32 0, i32 7
  %100 = load i8, ptr %99, align 4
  %101 = and i8 %97, 1
  %102 = and i8 %100, -2
  %103 = or i8 %102, %101
  store i8 %103, ptr %99, align 4
  %104 = load ptr, ptr %7, align 8, !tbaa !3
  %105 = getelementptr inbounds nuw %struct._lv_draw_sw_mask_line_param_t, ptr %104, i32 0, i32 4
  store i32 0, ptr %105, align 8, !tbaa !31
  %106 = load ptr, ptr %7, align 8, !tbaa !3
  %107 = getelementptr inbounds nuw %struct._lv_draw_sw_mask_line_param_t, ptr %106, i32 0, i32 3
  store i32 0, ptr %107, align 4, !tbaa !35
  %108 = load ptr, ptr %7, align 8, !tbaa !3
  %109 = getelementptr inbounds nuw %struct._lv_draw_sw_mask_line_param_t, ptr %108, i32 0, i32 0
  %110 = getelementptr inbounds nuw %struct._lv_draw_sw_mask_common_dsc_t, ptr %109, i32 0, i32 0
  store ptr @lv_draw_mask_line, ptr %110, align 8, !tbaa !36
  %111 = load ptr, ptr %7, align 8, !tbaa !3
  %112 = getelementptr inbounds nuw %struct._lv_draw_sw_mask_line_param_t, ptr %111, i32 0, i32 0
  %113 = getelementptr inbounds nuw %struct._lv_draw_sw_mask_common_dsc_t, ptr %112, i32 0, i32 1
  store i32 0, ptr %113, align 8, !tbaa !37
  call void @llvm.lifetime.start.p0(i64 4, ptr %14) #4
  %114 = load i32, ptr %10, align 4, !tbaa !7
  %115 = load i32, ptr %8, align 4, !tbaa !7
  %116 = sub nsw i32 %114, %115
  store i32 %116, ptr %14, align 4, !tbaa !7
  call void @llvm.lifetime.start.p0(i64 4, ptr %15) #4
  %117 = load i32, ptr %11, align 4, !tbaa !7
  %118 = load i32, ptr %9, align 4, !tbaa !7
  %119 = sub nsw i32 %117, %118
  store i32 %119, ptr %15, align 4, !tbaa !7
  %120 = load ptr, ptr %7, align 8, !tbaa !3
  %121 = getelementptr inbounds nuw %struct._lv_draw_sw_mask_line_param_t, ptr %120, i32 0, i32 7
  %122 = load i8, ptr %121, align 4
  %123 = and i8 %122, 1
  %124 = icmp ne i8 %123, 0
  br i1 %124, label %125, label %159

125:                                              ; preds = %93
  call void @llvm.lifetime.start.p0(i64 4, ptr %16) #4
  %126 = load i32, ptr %14, align 4, !tbaa !7
  %127 = icmp ne i32 %126, 0
  br i1 %127, label %128, label %139

128:                                              ; preds = %125
  %129 = load i32, ptr %14, align 4, !tbaa !7
  %130 = sext i32 %129 to i64
  %131 = sdiv i64 1048576, %130
  %132 = trunc i64 %131 to i32
  store i32 %132, ptr %16, align 4, !tbaa !7
  %133 = load i32, ptr %16, align 4, !tbaa !7
  %134 = load i32, ptr %15, align 4, !tbaa !7
  %135 = mul nsw i32 %133, %134
  %136 = ashr i32 %135, 10
  %137 = load ptr, ptr %7, align 8, !tbaa !3
  %138 = getelementptr inbounds nuw %struct._lv_draw_sw_mask_line_param_t, ptr %137, i32 0, i32 4
  store i32 %136, ptr %138, align 8, !tbaa !31
  br label %139

139:                                              ; preds = %128, %125
  %140 = load i32, ptr %15, align 4, !tbaa !7
  %141 = icmp ne i32 %140, 0
  br i1 %141, label %142, label %153

142:                                              ; preds = %139
  %143 = load i32, ptr %15, align 4, !tbaa !7
  %144 = sext i32 %143 to i64
  %145 = sdiv i64 1048576, %144
  %146 = trunc i64 %145 to i32
  store i32 %146, ptr %16, align 4, !tbaa !7
  %147 = load i32, ptr %16, align 4, !tbaa !7
  %148 = load i32, ptr %14, align 4, !tbaa !7
  %149 = mul nsw i32 %147, %148
  %150 = ashr i32 %149, 10
  %151 = load ptr, ptr %7, align 8, !tbaa !3
  %152 = getelementptr inbounds nuw %struct._lv_draw_sw_mask_line_param_t, ptr %151, i32 0, i32 3
  store i32 %150, ptr %152, align 4, !tbaa !35
  br label %153

153:                                              ; preds = %142, %139
  %154 = load ptr, ptr %7, align 8, !tbaa !3
  %155 = getelementptr inbounds nuw %struct._lv_draw_sw_mask_line_param_t, ptr %154, i32 0, i32 4
  %156 = load i32, ptr %155, align 8, !tbaa !31
  %157 = load ptr, ptr %7, align 8, !tbaa !3
  %158 = getelementptr inbounds nuw %struct._lv_draw_sw_mask_line_param_t, ptr %157, i32 0, i32 5
  store i32 %156, ptr %158, align 4, !tbaa !38
  call void @llvm.lifetime.end.p0(i64 4, ptr %16) #4
  br label %193

159:                                              ; preds = %93
  call void @llvm.lifetime.start.p0(i64 4, ptr %17) #4
  %160 = load i32, ptr %15, align 4, !tbaa !7
  %161 = icmp ne i32 %160, 0
  br i1 %161, label %162, label %173

162:                                              ; preds = %159
  %163 = load i32, ptr %15, align 4, !tbaa !7
  %164 = sext i32 %163 to i64
  %165 = sdiv i64 1048576, %164
  %166 = trunc i64 %165 to i32
  store i32 %166, ptr %17, align 4, !tbaa !7
  %167 = load i32, ptr %17, align 4, !tbaa !7
  %168 = load i32, ptr %14, align 4, !tbaa !7
  %169 = mul nsw i32 %167, %168
  %170 = ashr i32 %169, 10
  %171 = load ptr, ptr %7, align 8, !tbaa !3
  %172 = getelementptr inbounds nuw %struct._lv_draw_sw_mask_line_param_t, ptr %171, i32 0, i32 3
  store i32 %170, ptr %172, align 4, !tbaa !35
  br label %173

173:                                              ; preds = %162, %159
  %174 = load i32, ptr %14, align 4, !tbaa !7
  %175 = icmp ne i32 %174, 0
  br i1 %175, label %176, label %187

176:                                              ; preds = %173
  %177 = load i32, ptr %14, align 4, !tbaa !7
  %178 = sext i32 %177 to i64
  %179 = sdiv i64 1048576, %178
  %180 = trunc i64 %179 to i32
  store i32 %180, ptr %17, align 4, !tbaa !7
  %181 = load i32, ptr %17, align 4, !tbaa !7
  %182 = load i32, ptr %15, align 4, !tbaa !7
  %183 = mul nsw i32 %181, %182
  %184 = ashr i32 %183, 10
  %185 = load ptr, ptr %7, align 8, !tbaa !3
  %186 = getelementptr inbounds nuw %struct._lv_draw_sw_mask_line_param_t, ptr %185, i32 0, i32 4
  store i32 %184, ptr %186, align 8, !tbaa !31
  br label %187

187:                                              ; preds = %176, %173
  %188 = load ptr, ptr %7, align 8, !tbaa !3
  %189 = getelementptr inbounds nuw %struct._lv_draw_sw_mask_line_param_t, ptr %188, i32 0, i32 3
  %190 = load i32, ptr %189, align 4, !tbaa !35
  %191 = load ptr, ptr %7, align 8, !tbaa !3
  %192 = getelementptr inbounds nuw %struct._lv_draw_sw_mask_line_param_t, ptr %191, i32 0, i32 5
  store i32 %190, ptr %192, align 4, !tbaa !38
  call void @llvm.lifetime.end.p0(i64 4, ptr %17) #4
  br label %193

193:                                              ; preds = %187, %153
  %194 = load ptr, ptr %7, align 8, !tbaa !3
  %195 = getelementptr inbounds nuw %struct._lv_draw_sw_mask_line_param_t, ptr %194, i32 0, i32 1
  %196 = getelementptr inbounds nuw %struct.anon.0, ptr %195, i32 0, i32 2
  %197 = load i8, ptr %196, align 8
  %198 = and i8 %197, 3
  %199 = zext i8 %198 to i32
  %200 = icmp eq i32 %199, 0
  br i1 %200, label %201, label %207

201:                                              ; preds = %193
  %202 = load ptr, ptr %7, align 8, !tbaa !3
  %203 = getelementptr inbounds nuw %struct._lv_draw_sw_mask_line_param_t, ptr %202, i32 0, i32 7
  %204 = load i8, ptr %203, align 4
  %205 = and i8 %204, -3
  %206 = or i8 %205, 0
  store i8 %206, ptr %203, align 4
  br label %276

207:                                              ; preds = %193
  %208 = load ptr, ptr %7, align 8, !tbaa !3
  %209 = getelementptr inbounds nuw %struct._lv_draw_sw_mask_line_param_t, ptr %208, i32 0, i32 1
  %210 = getelementptr inbounds nuw %struct.anon.0, ptr %209, i32 0, i32 2
  %211 = load i8, ptr %210, align 8
  %212 = and i8 %211, 3
  %213 = zext i8 %212 to i32
  %214 = icmp eq i32 %213, 1
  br i1 %214, label %215, label %221

215:                                              ; preds = %207
  %216 = load ptr, ptr %7, align 8, !tbaa !3
  %217 = getelementptr inbounds nuw %struct._lv_draw_sw_mask_line_param_t, ptr %216, i32 0, i32 7
  %218 = load i8, ptr %217, align 4
  %219 = and i8 %218, -3
  %220 = or i8 %219, 2
  store i8 %220, ptr %217, align 4
  br label %275

221:                                              ; preds = %207
  %222 = load ptr, ptr %7, align 8, !tbaa !3
  %223 = getelementptr inbounds nuw %struct._lv_draw_sw_mask_line_param_t, ptr %222, i32 0, i32 1
  %224 = getelementptr inbounds nuw %struct.anon.0, ptr %223, i32 0, i32 2
  %225 = load i8, ptr %224, align 8
  %226 = and i8 %225, 3
  %227 = zext i8 %226 to i32
  %228 = icmp eq i32 %227, 2
  br i1 %228, label %229, label %247

229:                                              ; preds = %221
  %230 = load ptr, ptr %7, align 8, !tbaa !3
  %231 = getelementptr inbounds nuw %struct._lv_draw_sw_mask_line_param_t, ptr %230, i32 0, i32 5
  %232 = load i32, ptr %231, align 4, !tbaa !38
  %233 = icmp sgt i32 %232, 0
  br i1 %233, label %234, label %240

234:                                              ; preds = %229
  %235 = load ptr, ptr %7, align 8, !tbaa !3
  %236 = getelementptr inbounds nuw %struct._lv_draw_sw_mask_line_param_t, ptr %235, i32 0, i32 7
  %237 = load i8, ptr %236, align 4
  %238 = and i8 %237, -3
  %239 = or i8 %238, 2
  store i8 %239, ptr %236, align 4
  br label %246

240:                                              ; preds = %229
  %241 = load ptr, ptr %7, align 8, !tbaa !3
  %242 = getelementptr inbounds nuw %struct._lv_draw_sw_mask_line_param_t, ptr %241, i32 0, i32 7
  %243 = load i8, ptr %242, align 4
  %244 = and i8 %243, -3
  %245 = or i8 %244, 0
  store i8 %245, ptr %242, align 4
  br label %246

246:                                              ; preds = %240, %234
  br label %274

247:                                              ; preds = %221
  %248 = load ptr, ptr %7, align 8, !tbaa !3
  %249 = getelementptr inbounds nuw %struct._lv_draw_sw_mask_line_param_t, ptr %248, i32 0, i32 1
  %250 = getelementptr inbounds nuw %struct.anon.0, ptr %249, i32 0, i32 2
  %251 = load i8, ptr %250, align 8
  %252 = and i8 %251, 3
  %253 = zext i8 %252 to i32
  %254 = icmp eq i32 %253, 3
  br i1 %254, label %255, label %273

255:                                              ; preds = %247
  %256 = load ptr, ptr %7, align 8, !tbaa !3
  %257 = getelementptr inbounds nuw %struct._lv_draw_sw_mask_line_param_t, ptr %256, i32 0, i32 5
  %258 = load i32, ptr %257, align 4, !tbaa !38
  %259 = icmp sgt i32 %258, 0
  br i1 %259, label %260, label %266

260:                                              ; preds = %255
  %261 = load ptr, ptr %7, align 8, !tbaa !3
  %262 = getelementptr inbounds nuw %struct._lv_draw_sw_mask_line_param_t, ptr %261, i32 0, i32 7
  %263 = load i8, ptr %262, align 4
  %264 = and i8 %263, -3
  %265 = or i8 %264, 0
  store i8 %265, ptr %262, align 4
  br label %272

266:                                              ; preds = %255
  %267 = load ptr, ptr %7, align 8, !tbaa !3
  %268 = getelementptr inbounds nuw %struct._lv_draw_sw_mask_line_param_t, ptr %267, i32 0, i32 7
  %269 = load i8, ptr %268, align 4
  %270 = and i8 %269, -3
  %271 = or i8 %270, 2
  store i8 %271, ptr %268, align 4
  br label %272

272:                                              ; preds = %266, %260
  br label %273

273:                                              ; preds = %272, %247
  br label %274

274:                                              ; preds = %273, %246
  br label %275

275:                                              ; preds = %274, %215
  br label %276

276:                                              ; preds = %275, %201
  %277 = load ptr, ptr %7, align 8, !tbaa !3
  %278 = getelementptr inbounds nuw %struct._lv_draw_sw_mask_line_param_t, ptr %277, i32 0, i32 5
  %279 = load i32, ptr %278, align 4, !tbaa !38
  %280 = ashr i32 %279, 2
  %281 = load ptr, ptr %7, align 8, !tbaa !3
  %282 = getelementptr inbounds nuw %struct._lv_draw_sw_mask_line_param_t, ptr %281, i32 0, i32 6
  store i32 %280, ptr %282, align 8, !tbaa !39
  %283 = load ptr, ptr %7, align 8, !tbaa !3
  %284 = getelementptr inbounds nuw %struct._lv_draw_sw_mask_line_param_t, ptr %283, i32 0, i32 5
  %285 = load i32, ptr %284, align 4, !tbaa !38
  %286 = icmp slt i32 %285, 0
  br i1 %286, label %287, label %294

287:                                              ; preds = %276
  %288 = load ptr, ptr %7, align 8, !tbaa !3
  %289 = getelementptr inbounds nuw %struct._lv_draw_sw_mask_line_param_t, ptr %288, i32 0, i32 6
  %290 = load i32, ptr %289, align 8, !tbaa !39
  %291 = sub nsw i32 0, %290
  %292 = load ptr, ptr %7, align 8, !tbaa !3
  %293 = getelementptr inbounds nuw %struct._lv_draw_sw_mask_line_param_t, ptr %292, i32 0, i32 6
  store i32 %291, ptr %293, align 8, !tbaa !39
  br label %294

294:                                              ; preds = %287, %276
  call void @llvm.lifetime.end.p0(i64 4, ptr %15) #4
  call void @llvm.lifetime.end.p0(i64 4, ptr %14) #4
  ret void
}