; Function Attrs: nounwind uwtable
define void @lv_draw_sw_mask_line_points_init(ptr noundef %0, i32 noundef %1, i32 noundef %2, i32 noundef %3, i32 noundef %4, i32 noundef %5) local_unnamed_addr #0 {
  tail call void @lv_memset(ptr noundef %0, i8 noundef zeroext 0, i64 noundef 64) #7
  %7 = icmp eq i32 %2, %4
  %8 = icmp eq i32 %5, 3
  %or.cond = and i1 %7, %8
  %9 = sext i1 %or.cond to i32
  %.090 = add nsw i32 %4, %9
  %.088 = add nsw i32 %2, %9
  %10 = icmp sgt i32 %2, %4
  br i1 %10, label %11, label %12

11:                                               ; preds = %6
  br label %12

12:                                               ; preds = %11, %6
  %.191 = phi i32 [ %.088, %11 ], [ %.090, %6 ]
  %.089 = phi i32 [ %1, %11 ], [ %3, %6 ]
  %.1 = phi i32 [ %.090, %11 ], [ %.088, %6 ]
  %.0 = phi i32 [ %3, %11 ], [ %1, %6 ]
  %13 = getelementptr inbounds nuw i8, ptr %0, i64 16
  tail call void @lv_point_set(ptr noundef nonnull %13, i32 noundef %.0, i32 noundef %.1) #7
  %14 = getelementptr inbounds nuw i8, ptr %0, i64 24
  tail call void @lv_point_set(ptr noundef nonnull %14, i32 noundef %.089, i32 noundef %.191) #7
  %15 = getelementptr inbounds nuw i8, ptr %0, i64 32
  %16 = trunc i32 %5 to i8
  %17 = load i8, ptr %15, align 8
  %18 = and i8 %16, 3
  %19 = and i8 %17, -4
  %20 = or disjoint i8 %19, %18
  store i8 %20, ptr %15, align 8
  %21 = getelementptr inbounds nuw i8, ptr %0, i64 36
  tail call void @lv_point_set(ptr noundef nonnull %21, i32 noundef %.0, i32 noundef %.1) #7
  %22 = sub nsw i32 %.089, %.0
  %23 = tail call i32 @llvm.abs.i32(i32 %22, i1 true)
  %24 = sub nsw i32 %.191, %.1
  %25 = tail call i32 @llvm.abs.i32(i32 %24, i1 true)
  %26 = icmp samesign ugt i32 %23, %25
  %27 = zext i1 %26 to i8
  %28 = getelementptr inbounds nuw i8, ptr %0, i64 60
  %29 = load i8, ptr %28, align 4
  %30 = and i8 %29, -2
  %31 = or disjoint i8 %30, %27
  %32 = getelementptr inbounds nuw i8, ptr %0, i64 48
  store i32 0, ptr %32, align 8, !tbaa !23
  %33 = getelementptr inbounds nuw i8, ptr %0, i64 44
  store i32 0, ptr %33, align 4, !tbaa !27
  store ptr @lv_draw_mask_line, ptr %0, align 8, !tbaa !28
  %34 = getelementptr inbounds nuw i8, ptr %0, i64 8
  store i32 0, ptr %34, align 8, !tbaa !29
  br i1 %26, label %35, label %46

35:                                               ; preds = %12
  %.not103 = icmp eq i32 %1, %3
  br i1 %.not103, label %40, label %36

36:                                               ; preds = %35
  %37 = sdiv i32 1048576, %22
  %38 = mul nsw i32 %37, %24
  %39 = ashr i32 %38, 10
  store i32 %39, ptr %32, align 8, !tbaa !23
  br label %40

40:                                               ; preds = %36, %35
  %41 = phi i32 [ %39, %36 ], [ 0, %35 ]
  %.not104 = icmp eq i32 %2, %4
  br i1 %.not104, label %57, label %42

42:                                               ; preds = %40
  %43 = sdiv i32 1048576, %24
  %44 = mul nsw i32 %43, %22
  %45 = ashr i32 %44, 10
  store i32 %45, ptr %33, align 4, !tbaa !27
  br label %57

46:                                               ; preds = %12
  %.not101 = icmp eq i32 %2, %4
  br i1 %.not101, label %51, label %47

47:                                               ; preds = %46
  %48 = sdiv i32 1048576, %24
  %49 = mul nsw i32 %48, %22
  %50 = ashr i32 %49, 10
  store i32 %50, ptr %33, align 4, !tbaa !27
  br label %51

51:                                               ; preds = %47, %46
  %52 = phi i32 [ %50, %47 ], [ 0, %46 ]
  %.not102 = icmp eq i32 %1, %3
  br i1 %.not102, label %57, label %53

53:                                               ; preds = %51
  %54 = sdiv i32 1048576, %22
  %55 = mul nsw i32 %54, %24
  %56 = ashr i32 %55, 10
  store i32 %56, ptr %32, align 8, !tbaa !23
  br label %57

57:                                               ; preds = %51, %53, %40, %42
  %.sink = phi i32 [ %41, %42 ], [ %41, %40 ], [ %52, %53 ], [ %52, %51 ]
  %58 = getelementptr inbounds nuw i8, ptr %0, i64 52
  store i32 %.sink, ptr %58, align 4, !tbaa !30
  %59 = load i8, ptr %15, align 8
  %60 = and i8 %59, 3
  switch i8 %60, label %default.unreachable [
    i8 0, label %61
    i8 1, label %63
    i8 2, label %65
    i8 3, label %71
  ]

61:                                               ; preds = %57
  %62 = and i8 %31, -3
  br label %77

63:                                               ; preds = %57
  %64 = or i8 %31, 2
  br label %77

65:                                               ; preds = %57
  %66 = icmp sgt i32 %.sink, 0
  br i1 %66, label %67, label %69

67:                                               ; preds = %65
  %68 = or i8 %31, 2
  br label %77

69:                                               ; preds = %65
  %70 = and i8 %31, -3
  br label %77

default.unreachable:                              ; preds = %57
  unreachable

71:                                               ; preds = %57
  %72 = icmp sgt i32 %.sink, 0
  br i1 %72, label %73, label %75

73:                                               ; preds = %71
  %74 = and i8 %31, -3
  br label %77

75:                                               ; preds = %71
  %76 = or i8 %31, 2
  br label %77

77:                                               ; preds = %63, %75, %73, %67, %69, %61
  %.sink112 = phi i8 [ %64, %63 ], [ %76, %75 ], [ %74, %73 ], [ %68, %67 ], [ %70, %69 ], [ %62, %61 ]
  store i8 %.sink112, ptr %28, align 4
  %78 = ashr i32 %.sink, 2
  %79 = icmp slt i32 %.sink, 0
  %80 = sub nsw i32 0, %78
  %spec.select = select i1 %79, i32 %80, i32 %78
  %81 = getelementptr inbounds nuw i8, ptr %0, i64 56
  store i32 %spec.select, ptr %81, align 8, !tbaa !31
  ret void
}